target datalayout = "e-m:e-p270:32:32-p271:32:32-p272:64:64-i64:64-i128:128-f80:128-n8:16:32:64-S128"
target triple = "x86_64-pc-linux-gnu"

; Function Attrs: nounwind uwtable
define internal i32 @stream_cookie_seeker(ptr noundef %0, ptr noundef %1, i32 noundef %2) #0 {
  %4 = alloca i32, align 4
  %5 = alloca ptr, align 8
  %6 = alloca ptr, align 8
  %7 = alloca i32, align 4
  store ptr %0, ptr %5, align 8
  store ptr %1, ptr %6, align 8
  store i32 %2, ptr %7, align 4
  %8 = load ptr, ptr %5, align 8
  %9 = load ptr, ptr %6, align 8
  %10 = load i64, ptr %9, align 8
  %11 = load i32, ptr %7, align 4
  %12 = call i32 @_php_stream_seek(ptr noundef %8, i64 noundef %10, i32 noundef %11)
  %13 = sext i32 %12 to i64
  %14 = load ptr, ptr %6, align 8
  store i64 %13, ptr %14, align 8
  %15 = load ptr, ptr %6, align 8
  %16 = load i64, ptr %15, align 8
  %17 = icmp eq i64 %16, -1
  br i1 %17, label %18, label %19

18:                                               ; preds = %3
  store i32 -1, ptr %4, align 4
  br label %20

19:                                               ; preds = %3
  store i32 0, ptr %4, align 4
  br label %20

20:                                               ; preds = %19, %18
  %21 = load i32, ptr %4, align 4
  ret i32 %21
}