; Function Attrs: nounwind uwtable
define internal i32 @stream_cookie_seeker(ptr noundef %0, ptr nocapture noundef %1, i32 noundef %2) #1 {
  %4 = load i64, ptr %1, align 8
  %5 = tail call i32 @_php_stream_seek(ptr noundef %0, i64 noundef %4, i32 noundef %2) #7
  %6 = sext i32 %5 to i64
  store i64 %6, ptr %1, align 8
  %7 = icmp eq i32 %5, -1
  %. = sext i1 %7 to i32
  ret i32 %.
}